Certificate:
    Data:
        Version: 3 (0x2)
        Serial Number:
            be:d2:e9:34:0f:cc:b9:3b
    Signature Algorithm: sha256WithRSAEncryption
        Issuer: C=DE, ST=NRW, L=Bochum, O=RUB, OU=NDS, CN=NDS CA
        Validity
            Not Before: Sep 26 14:42:02 2022 GMT
            Not After : Jul 16 14:42:02 2025 GMT
        Subject: C=DE, ST=NRW, L=Bochum, O=RUB, OU=NDS, CN=example.com
        Subject Public Key Info:
            Public Key Algorithm: rsaEncryption
                Public-Key: (2048 bit)
                Modulus:
                    00:f7:33:48:3b:33:b6:61:2c:02:66:f1:96:d4:8d:
                    44:86:bd:d6:e9:c0:55:a6:fa:cd:e3:68:b6:d0:ce:
                    27:f6:9d:c1:b9:41:f2:66:e7:61:f0:73:56:97:49:
                    95:42:e9:1c:32:a7:3d:fc:dd:f1:72:b8:cf:ce:e6:
                    4e:97:07:81:22:e1:bd:8d:f7:c9:db:b4:6c:9d:04:
                    be:4b:cd:02:a2:5d:c9:7d:10:23:c3:6a:a7:47:81:
                    29:f1:42:0a:c8:2a:a8:86:44:57:bb:92:34:8d:ee:
                    22:5b:d6:49:e0:e5:8b:d9:30:34:3f:83:f3:30:90:
                    a2:56:39:40:02:9e:d9:8e:17:99:a7:c9:09:e3:89:
                    40:6e:7a:a4:df:f8:4f:bb:b1:d5:4b:8b:91:1e:e9:
                    86:2f:6e:b4:57:ad:25:ea:62:4d:6c:8e:b4:21:3a:
                    25:b7:ad:4f:7e:56:08:8a:53:07:c1:dc:6e:9f:93:
                    10:b5:24:e3:10:8f:91:32:53:67:d4:f8:30:56:f2:
                    56:5f:c0:7a:83:03:70:ef:b1:68:1d:d8:40:f6:32:
                    53:76:a6:c7:31:87:51:b4:11:36:1d:04:42:4c:a7:
                    7f:9c:ca:8a:01:6e:92:db:59:e4:58:ec:23:09:f4:
                    62:fd:85:54:0b:e7:94:bc:74:7c:9b:da:77:77:7f:
                    f6:2b
                Exponent: 65537 (0x10001)
        X509v3 extensions:
            X509v3 Basic Constraints: 
                CA:FALSE
            X509v3 Subject Alternative Name: 
                DNS:example.com, DNS:192.168.0.20.xip.io, DNS:*.192.168.0.20.xip.io, DNS:192.168.65.2.xip.io, DNS:*.192.168.65.2.xip.io
    Signature Algorithm: sha256WithRSAEncryption
         23:61:14:44:4c:c2:6c:10:f6:be:18:a4:f6:e9:c8:c8:74:40:
         79:fa:59:c1:44:32:14:50:f5:f8:1b:bc:8e:d6:0d:01:29:07:
         5c:7c:36:1f:19:89:26:38:9b:57:64:3f:4f:70:31:a9:2d:4c:
         fe:d0:be:1a:26:2a:4d:74:33:65:55:70:bf:4a:77:0e:92:35:
         08:18:67:73:f9:b0:cd:cb:6b:5a:aa:a7:d0:f3:da:41:77:ef:
         b1:01:df:08:11:65:fb:0b:65:4f:04:39:b4:8f:9e:58:29:b9:
         e4:f1:10:f5:ce:fa:0d:52:03:2d:70:e4:3b:46:76:89:e9:b3:
         8d:98:23:95:ff:03:6d:a3:27:85:5c:a9:1b:87:da:65:62:3a:
         65:8a:c2:01:4b:a2:87:36:a1:c0:43:af:cf:17:b7:ee:49:f5:
         a8:92:f4:0b:ea:2c:79:e7:57:23:c1:e0:e3:8c:0b:92:71:3b:
         d5:cb:2c:e8:2d:37:75:7a:7f:23:c3:fb:f5:2c:3c:c5:c0:e5:
         86:51:aa:b8:91:bb:fd:59:04:79:3f:8f:18:84:be:58:38:f2:
         df:43:ea:8d:33:ab:4c:04:e3:fa:bd:27:f0:a2:f2:a6:63:ae:
         0c:2e:9e:bb:0b:e8:4e:42:0d:4b:be:42:30:44:3b:f3:49:20:
         83:f0:b8:00
-----BEGIN CERTIFICATE-----
MIIDtzCCAp+gAwIBAgIJAL7S6TQPzLk7MA0GCSqGSIb3DQEBCwUAMFkxCzAJBgNV
BAYTAkRFMQwwCgYDVQQIDANOUlcxDzANBgNVBAcMBkJvY2h1bTEMMAoGA1UECgwD
UlVCMQwwCgYDVQQLDANORFMxDzANBgNVBAMMBk5EUyBDQTAeFw0yMjA5MjYxNDQy
MDJaFw0yNTA3MTYxNDQyMDJaMF4xCzAJBgNVBAYTAkRFMQwwCgYDVQQIDANOUlcx
DzANBgNVBAcMBkJvY2h1bTEMMAoGA1UECgwDUlVCMQwwCgYDVQQLDANORFMxFDAS
BgNVBAMMC2V4YW1wbGUuY29tMIIBIjANBgkqhkiG9w0BAQEFAAOCAQ8AMIIBCgKC
AQEA9zNIOzO2YSwCZvGW1I1Ehr3W6cBVpvrN42i20M4n9p3BuUHyZudh8HNWl0mV
QukcMqc9/N3xcrjPzuZOlweBIuG9jffJ27RsnQS+S80Col3JfRAjw2qnR4Ep8UIK
yCqohkRXu5I0je4iW9ZJ4OWL2TA0P4PzMJCiVjlAAp7ZjheZp8kJ44lAbnqk3/hP
u7HVS4uRHumGL260V60l6mJNbI60ITolt61PflYIilMHwdxun5MQtSTjEI+RMlNn
1PgwVvJWX8B6gwNw77FoHdhA9jJTdqbHMYdRtBE2HQRCTKd/nMqKAW6S21nkWOwj
CfRi/YVUC+eUvHR8m9p3d3/2KwIDAQABo30wezAJBgNVHRMEAjAAMG4GA1UdEQRn
MGWCC2V4YW1wbGUuY29tghMxOTIuMTY4LjAuMjAueGlwLmlvghUqLjE5Mi4xNjgu
MC4yMC54aXAuaW+CEzE5Mi4xNjguNjUuMi54aXAuaW+CFSouMTkyLjE2OC42NS4y
LnhpcC5pbzANBgkqhkiG9w0BAQsFAAOCAQEAI2EUREzCbBD2vhik9unIyHRAefpZ
wUQyFFD1+Bu8jtYNASkHXHw2HxmJJjibV2Q/T3AxqS1M/tC+GiYqTXQzZVVwv0p3
DpI1CBhnc/mwzctrWqqn0PPaQXfvsQHfCBFl+wtlTwQ5tI+eWCm55PEQ9c76DVID
LXDkO0Z2iemzjZgjlf8DbaMnhVypG4faZWI6ZYrCAUuihzahwEOvzxe37kn1qJL0
C+oseedXI8Hg44wLknE71css6C03dXp/I8P79Sw8xcDlhlGquJG7/VkEeT+PGIS+
WDjy30PqjTOrTATj+r0n8KLypmOuDC6euwvoTkINS75CMEQ780kgg/C4AA==
-----END CERTIFICATE-----
